target datalayout = "e-m:e-p270:32:32-p271:32:32-p272:64:64-i64:64-i128:128-f80:128-n8:16:32:64-S128"
target triple = "x86_64-pc-linux-gnu"

%union._GMutex = type { ptr }
%struct.InsnData = type { ptr, ptr, i64, i64, i64, i64 }
%struct.Cache = type { ptr, i32, i32, i32, i32, i64, i64, i64, i64 }

@cores = internal global i32 0, align 4
@use_l2 = internal global i8 0, align 1
@l1_icaches = internal global ptr null, align 8
@l2_ucaches = internal global ptr null, align 8
@l1_icache_locks = internal global ptr null, align 8
@l2_ucache_locks = internal global ptr null, align 8

; Function Attrs: nounwind sspstrong uwtable
define internal void @vcpu_insn_exec(i32 noundef %0, ptr noundef %1) #0 {
  %3 = alloca i32, align 4
  %4 = alloca ptr, align 8
  %5 = alloca i64, align 8
  %6 = alloca ptr, align 8
  %7 = alloca i32, align 4
  %8 = alloca i8, align 1
  %9 = alloca i64, align 8
  %10 = alloca i64, align 8
  %11 = alloca i32, align 4
  %12 = alloca i64, align 8
  %13 = alloca i64, align 8
  store i32 %0, ptr %3, align 4
  store ptr %1, ptr %4, align 8
  call void @llvm.lifetime.start.p0(i64 8, ptr %5) #10
  store i64 0, ptr %5, align 8, !annotation !3
  call void @llvm.lifetime.start.p0(i64 8, ptr %6) #10
  store ptr null, ptr %6, align 8, !annotation !3
  call void @llvm.lifetime.start.p0(i64 4, ptr %7) #10
  store i32 0, ptr %7, align 4, !annotation !3
  call void @llvm.lifetime.start.p0(i64 1, ptr %8) #10
  store i8 0, ptr %8, align 1, !annotation !3
  %14 = load ptr, ptr %4, align 8
  %15 = getelementptr inbounds nuw %struct.InsnData, ptr %14, i32 0, i32 2
  %16 = load i64, ptr %15, align 8
  store i64 %16, ptr %5, align 8
  %17 = load i32, ptr %3, align 4
  %18 = load i32, ptr @cores, align 4
  %19 = urem i32 %17, %18
  store i32 %19, ptr %7, align 4
  %20 = load ptr, ptr @l1_icache_locks, align 8
  %21 = load i32, ptr %7, align 4
  %22 = sext i32 %21 to i64
  %23 = getelementptr inbounds %union._GMutex, ptr %20, i64 %22
  call void @g_mutex_lock(ptr noundef %23)
  %24 = load ptr, ptr @l1_icaches, align 8
  %25 = load i32, ptr %7, align 4
  %26 = sext i32 %25 to i64
  %27 = getelementptr inbounds ptr, ptr %24, i64 %26
  %28 = load ptr, ptr %27, align 8
  %29 = load i64, ptr %5, align 8
  %30 = call zeroext i1 @access_cache(ptr noundef %28, i64 noundef %29)
  %31 = zext i1 %30 to i8
  store i8 %31, ptr %8, align 1
  %32 = load i8, ptr %8, align 1, !range !4, !noundef !5
  %33 = trunc i8 %32 to i1
  br i1 %33, label %48, label %34

34:                                               ; preds = %2
  %35 = load ptr, ptr %4, align 8
  store ptr %35, ptr %6, align 8
  %36 = load ptr, ptr %6, align 8
  %37 = getelementptr inbounds nuw %struct.InsnData, ptr %36, i32 0, i32 4
  store i64 1, ptr %9, align 8
  %38 = load i64, ptr %9, align 8
  %39 = atomicrmw add ptr %37, i64 %38 seq_cst, align 8
  store i64 %39, ptr %10, align 8
  %40 = load ptr, ptr @l1_icaches, align 8
  %41 = load i32, ptr %7, align 4
  %42 = sext i32 %41 to i64
  %43 = getelementptr inbounds ptr, ptr %40, i64 %42
  %44 = load ptr, ptr %43, align 8
  %45 = getelementptr inbounds nuw %struct.Cache, ptr %44, i32 0, i32 8
  %46 = load i64, ptr %45, align 8
  %47 = add i64 %46, 1
  store i64 %47, ptr %45, align 8
  br label %48

48:                                               ; preds = %34, %2
  %49 = load ptr, ptr @l1_icaches, align 8
  %50 = load i32, ptr %7, align 4
  %51 = sext i32 %50 to i64
  %52 = getelementptr inbounds ptr, ptr %49, i64 %51
  %53 = load ptr, ptr %52, align 8
  %54 = getelementptr inbounds nuw %struct.Cache, ptr %53, i32 0, i32 7
  %55 = load i64, ptr %54, align 8
  %56 = add i64 %55, 1
  store i64 %56, ptr %54, align 8
  %57 = load ptr, ptr @l1_icache_locks, align 8
  %58 = load i32, ptr %7, align 4
  %59 = sext i32 %58 to i64
  %60 = getelementptr inbounds %union._GMutex, ptr %57, i64 %59
  call void @g_mutex_unlock(ptr noundef %60)
  %61 = load i8, ptr %8, align 1, !range !4, !noundef !5
  %62 = trunc i8 %61 to i1
  br i1 %62, label %66, label %63

63:                                               ; preds = %48
  %64 = load i8, ptr @use_l2, align 1, !range !4, !noundef !5
  %65 = trunc i8 %64 to i1
  br i1 %65, label %67, label %66

66:                                               ; preds = %63, %48
  store i32 1, ptr %11, align 4
  br label %106

67:                                               ; preds = %63
  %68 = load ptr, ptr @l2_ucache_locks, align 8
  %69 = load i32, ptr %7, align 4
  %70 = sext i32 %69 to i64
  %71 = getelementptr inbounds %union._GMutex, ptr %68, i64 %70
  call void @g_mutex_lock(ptr noundef %71)
  %72 = load ptr, ptr @l2_ucaches, align 8
  %73 = load i32, ptr %7, align 4
  %74 = sext i32 %73 to i64
  %75 = getelementptr inbounds ptr, ptr %72, i64 %74
  %76 = load ptr, ptr %75, align 8
  %77 = load i64, ptr %5, align 8
  %78 = call zeroext i1 @access_cache(ptr noundef %76, i64 noundef %77)
  br i1 %78, label %93, label %79

79:                                               ; preds = %67
  %80 = load ptr, ptr %4, align 8
  store ptr %80, ptr %6, align 8
  %81 = load ptr, ptr %6, align 8
  %82 = getelementptr inbounds nuw %struct.InsnData, ptr %81, i32 0, i32 5
  store i64 1, ptr %12, align 8
  %83 = load i64, ptr %12, align 8
  %84 = atomicrmw add ptr %82, i64 %83 seq_cst, align 8
  store i64 %84, ptr %13, align 8
  %85 = load ptr, ptr @l2_ucaches, align 8
  %86 = load i32, ptr %7, align 4
  %87 = sext i32 %86 to i64
  %88 = getelementptr inbounds ptr, ptr %85, i64 %87
  %89 = load ptr, ptr %88, align 8
  %90 = getelementptr inbounds nuw %struct.Cache, ptr %89, i32 0, i32 8
  %91 = load i64, ptr %90, align 8
  %92 = add i64 %91, 1
  store i64 %92, ptr %90, align 8
  br label %93

93:                                               ; preds = %79, %67
  %94 = load ptr, ptr @l2_ucaches, align 8
  %95 = load i32, ptr %7, align 4
  %96 = sext i32 %95 to i64
  %97 = getelementptr inbounds ptr, ptr %94, i64 %96
  %98 = load ptr, ptr %97, align 8
  %99 = getelementptr inbounds nuw %struct.Cache, ptr %98, i32 0, i32 7
  %100 = load i64, ptr %99, align 8
  %101 = add i64 %100, 1
  store i64 %101, ptr %99, align 8
  %102 = load ptr, ptr @l2_ucache_locks, align 8
  %103 = load i32, ptr %7, align 4
  %104 = sext i32 %103 to i64
  %105 = getelementptr inbounds %union._GMutex, ptr %102, i64 %104
  call void @g_mutex_unlock(ptr noundef %105)
  store i32 0, ptr %11, align 4
  br label %106

106:                                              ; preds = %93, %66
  call void @llvm.lifetime.end.p0(i64 1, ptr %8) #10
  call void @llvm.lifetime.end.p0(i64 4, ptr %7) #10
  call void @llvm.lifetime.end.p0(i64 8, ptr %6) #10
  call void @llvm.lifetime.end.p0(i64 8, ptr %5) #10
  %107 = load i32, ptr %11, align 4
  switch i32 %107, label %109 [
    i32 0, label %108
    i32 1, label %108
  ]

108:                                              ; preds = %106, %106
  ret void

109:                                              ; preds = %106
  unreachable
}