; Function Attrs: nounwind sspstrong uwtable
define internal void @vcpu_insn_exec(i32 noundef %0, ptr noundef captures(none) %1) #0 {
  %3 = getelementptr inbounds nuw i8, ptr %1, i64 16
  %4 = load i64, ptr %3, align 8
  %5 = load i32, ptr @cores, align 4
  %6 = urem i32 %0, %5
  %7 = load ptr, ptr @l1_icache_locks, align 8
  %8 = sext i32 %6 to i64
  %9 = getelementptr inbounds %union._GMutex, ptr %7, i64 %8
  tail call void @g_mutex_lock(ptr noundef %9) #12
  %10 = load ptr, ptr @l1_icaches, align 8
  %11 = getelementptr inbounds ptr, ptr %10, i64 %8
  %12 = load ptr, ptr %11, align 8
  %13 = tail call fastcc zeroext i1 @access_cache(ptr noundef %12, i64 noundef %4)
  br i1 %13, label %.critedge, label %14

14:                                               ; preds = %2
  %15 = getelementptr inbounds nuw i8, ptr %1, i64 32
  %16 = atomicrmw add ptr %15, i64 1 seq_cst, align 8
  %17 = load ptr, ptr @l1_icaches, align 8
  %18 = getelementptr inbounds ptr, ptr %17, i64 %8
  %19 = load ptr, ptr %18, align 8
  %20 = getelementptr inbounds nuw i8, ptr %19, i64 48
  %21 = load i64, ptr %20, align 8
  %22 = add i64 %21, 1
  store i64 %22, ptr %20, align 8
  %23 = load ptr, ptr %18, align 8
  %24 = getelementptr inbounds nuw i8, ptr %23, i64 40
  %25 = load i64, ptr %24, align 8
  %26 = add i64 %25, 1
  store i64 %26, ptr %24, align 8
  %27 = load ptr, ptr @l1_icache_locks, align 8
  %28 = getelementptr inbounds %union._GMutex, ptr %27, i64 %8
  tail call void @g_mutex_unlock(ptr noundef %28) #12
  %29 = load i8, ptr @use_l2, align 1, !range !3, !noundef !4
  %30 = trunc nuw i8 %29 to i1
  br i1 %30, label %32, label %55

.critedge:                                        ; preds = %2
  %31 = load ptr, ptr @l1_icaches, align 8
  br label %.sink.split

32:                                               ; preds = %14
  %33 = load ptr, ptr @l2_ucache_locks, align 8
  %34 = getelementptr inbounds %union._GMutex, ptr %33, i64 %8
  tail call void @g_mutex_lock(ptr noundef %34) #12
  %35 = load ptr, ptr @l2_ucaches, align 8
  %36 = getelementptr inbounds ptr, ptr %35, i64 %8
  %37 = load ptr, ptr %36, align 8
  %38 = tail call fastcc zeroext i1 @access_cache(ptr noundef %37, i64 noundef %4)
  br i1 %38, label %._crit_edge, label %39

._crit_edge:                                      ; preds = %32
  %.pre = load ptr, ptr @l2_ucaches, align 8
  br label %.sink.split

39:                                               ; preds = %32
  %40 = getelementptr inbounds nuw i8, ptr %1, i64 40
  %41 = atomicrmw add ptr %40, i64 1 seq_cst, align 8
  %42 = load ptr, ptr @l2_ucaches, align 8
  %43 = getelementptr inbounds ptr, ptr %42, i64 %8
  %44 = load ptr, ptr %43, align 8
  %45 = getelementptr inbounds nuw i8, ptr %44, i64 48
  %46 = load i64, ptr %45, align 8
  %47 = add i64 %46, 1
  store i64 %47, ptr %45, align 8
  br label %.sink.split

.sink.split:                                      ; preds = %39, %._crit_edge, %.critedge
  %.sink25 = phi ptr [ %31, %.critedge ], [ %.pre, %._crit_edge ], [ %42, %39 ]
  %l1_icache_locks.sink = phi ptr [ @l1_icache_locks, %.critedge ], [ @l2_ucache_locks, %._crit_edge ], [ @l2_ucache_locks, %39 ]
  %48 = getelementptr inbounds ptr, ptr %.sink25, i64 %8
  %49 = load ptr, ptr %48, align 8
  %50 = getelementptr inbounds nuw i8, ptr %49, i64 40
  %51 = load i64, ptr %50, align 8
  %52 = add i64 %51, 1
  store i64 %52, ptr %50, align 8
  %53 = load ptr, ptr %l1_icache_locks.sink, align 8
  %54 = getelementptr inbounds %union._GMutex, ptr %53, i64 %8
  tail call void @g_mutex_unlock(ptr noundef %54) #12
  br label %55

55:                                               ; preds = %.sink.split, %14
  ret void
}